target datalayout = "e-m:e-p270:32:32-p271:32:32-p272:64:64-i64:64-i128:128-f80:128-n8:16:32:64-S128"
target triple = "x86_64-pc-linux-gnu"

; Function Attrs: nounwind uwtable
define signext i8 @EVUTIL_TOLOWER_(i8 noundef signext %0) #0 {
  %2 = alloca i8, align 1
  store i8 %0, ptr %2, align 1
  %3 = load i8, ptr %2, align 1
  %4 = zext i8 %3 to i64
  %5 = getelementptr inbounds nuw [256 x i8], ptr @EVUTIL_TOLOWER_TABLE, i64 0, i64 %4
  %6 = load i8, ptr %5, align 1
  ret i8 %6
}

; Function Attrs: nounwind uwtable
define i32 @evutil_ascii_strncasecmp(ptr noundef %0, ptr noundef %1, i64 noundef %2) #0 {
  %4 = alloca i32, align 4
  %5 = alloca ptr, align 8
  %6 = alloca ptr, align 8
  %7 = alloca i64, align 8
  %8 = alloca i8, align 1
  %9 = alloca i8, align 1
  %10 = alloca i32, align 4
  store ptr %0, ptr %5, align 8
  store ptr %1, ptr %6, align 8
  store i64 %2, ptr %7, align 8
  call void @llvm.lifetime.start.p0(i64 1, ptr %8) #11
  call void @llvm.lifetime.start.p0(i64 1, ptr %9) #11
  br label %11

11:                                               ; preds = %44, %3
  %12 = load i64, ptr %7, align 8
  %13 = add i64 %12, -1
  store i64 %13, ptr %7, align 8
  %14 = icmp ne i64 %12, 0
  br i1 %14, label %15, label %45

15:                                               ; preds = %11
  %16 = load ptr, ptr %5, align 8
  %17 = getelementptr inbounds nuw i8, ptr %16, i32 1
  store ptr %17, ptr %5, align 8
  %18 = load i8, ptr %16, align 1
  %19 = call signext i8 @EVUTIL_TOLOWER_(i8 noundef signext %18)
  store i8 %19, ptr %8, align 1
  %20 = load ptr, ptr %6, align 8
  %21 = getelementptr inbounds nuw i8, ptr %20, i32 1
  store ptr %21, ptr %6, align 8
  %22 = load i8, ptr %20, align 1
  %23 = call signext i8 @EVUTIL_TOLOWER_(i8 noundef signext %22)
  store i8 %23, ptr %9, align 1
  %24 = load i8, ptr %8, align 1
  %25 = sext i8 %24 to i32
  %26 = load i8, ptr %9, align 1
  %27 = sext i8 %26 to i32
  %28 = icmp slt i32 %25, %27
  br i1 %28, label %29, label %30

29:                                               ; preds = %15
  store i32 -1, ptr %4, align 4
  store i32 1, ptr %10, align 4
  br label %46

30:                                               ; preds = %15
  %31 = load i8, ptr %8, align 1
  %32 = sext i8 %31 to i32
  %33 = load i8, ptr %9, align 1
  %34 = sext i8 %33 to i32
  %35 = icmp sgt i32 %32, %34
  br i1 %35, label %36, label %37

36:                                               ; preds = %30
  store i32 1, ptr %4, align 4
  store i32 1, ptr %10, align 4
  br label %46

37:                                               ; preds = %30
  %38 = load i8, ptr %8, align 1
  %39 = sext i8 %38 to i32
  %40 = icmp eq i32 %39, 0
  br i1 %40, label %41, label %42

41:                                               ; preds = %37
  store i32 0, ptr %4, align 4
  store i32 1, ptr %10, align 4
  br label %46

42:                                               ; preds = %37
  br label %43

43:                                               ; preds = %42
  br label %44

44:                                               ; preds = %43
  br label %11, !llvm.loop !18

45:                                               ; preds = %11
  store i32 0, ptr %4, align 4
  store i32 1, ptr %10, align 4
  br label %46

46:                                               ; preds = %45, %41, %36, %29
  call void @llvm.lifetime.end.p0(i64 1, ptr %9) #11
  call void @llvm.lifetime.end.p0(i64 1, ptr %8) #11
  %47 = load i32, ptr %4, align 4
  ret i32 %47
}