; Function Attrs: nofree norecurse nosync nounwind memory(argmem: read) uwtable
define range(i32 -1, 2) i32 @evutil_ascii_strncasecmp(ptr noundef readonly captures(none) %0, ptr noundef readonly captures(none) %1, i64 noundef %2) local_unnamed_addr #21 {
  br label %4

4:                                                ; preds = %20, %3
  %.010 = phi ptr [ %1, %3 ], [ %12, %20 ]
  %.09 = phi i64 [ %2, %3 ], [ %5, %20 ]
  %.08 = phi ptr [ %0, %3 ], [ %7, %20 ]
  %5 = add i64 %.09, -1
  %.not = icmp eq i64 %.09, 0
  br i1 %.not, label %22, label %6

6:                                                ; preds = %4
  %7 = getelementptr inbounds nuw i8, ptr %.08, i64 1
  %8 = load i8, ptr %.08, align 1
  %9 = zext i8 %8 to i64
  %10 = getelementptr inbounds nuw [256 x i8], ptr @EVUTIL_TOLOWER_TABLE, i64 0, i64 %9
  %11 = load i8, ptr %10, align 1
  %12 = getelementptr inbounds nuw i8, ptr %.010, i64 1
  %13 = load i8, ptr %.010, align 1
  %14 = zext i8 %13 to i64
  %15 = getelementptr inbounds nuw [256 x i8], ptr @EVUTIL_TOLOWER_TABLE, i64 0, i64 %14
  %16 = load i8, ptr %15, align 1
  %17 = icmp slt i8 %11, %16
  br i1 %17, label %22, label %18

18:                                               ; preds = %6
  %19 = icmp sgt i8 %11, %16
  br i1 %19, label %22, label %20

20:                                               ; preds = %18
  %21 = icmp eq i8 %8, 0
  br i1 %21, label %22, label %4, !llvm.loop !19

22:                                               ; preds = %4, %20, %18, %6
  %.0 = phi i32 [ -1, %6 ], [ 1, %18 ], [ 0, %20 ], [ 0, %4 ]
  ret i32 %.0
}